	.text
	.syntax unified
	.eabi_attribute	67, "2.09"	@ Tag_conformance
	.cpu	cortex-m4
	.eabi_attribute	6, 13	@ Tag_CPU_arch
	.eabi_attribute	7, 77	@ Tag_CPU_arch_profile
	.eabi_attribute	8, 0	@ Tag_ARM_ISA_use
	.eabi_attribute	9, 2	@ Tag_THUMB_ISA_use
	.fpu	fpv4-sp-d16
	.eabi_attribute	27, 1	@ Tag_ABI_HardFP_use
	.eabi_attribute	36, 1	@ Tag_FP_HP_extension
	.eabi_attribute	34, 1	@ Tag_CPU_unaligned_access
	.eabi_attribute	17, 1	@ Tag_ABI_PCS_GOT_use
	.eabi_attribute	20, 2	@ Tag_ABI_FP_denormal
	.eabi_attribute	21, 0	@ Tag_ABI_FP_exceptions
	.eabi_attribute	23, 1	@ Tag_ABI_FP_number_model
	.eabi_attribute	24, 1	@ Tag_ABI_align_needed
	.eabi_attribute	25, 1	@ Tag_ABI_align_preserved
	.eabi_attribute	28, 1	@ Tag_ABI_VFP_args
	.eabi_attribute	38, 1	@ Tag_ABI_FP_16bit_format
	.eabi_attribute	18, 4	@ Tag_ABI_PCS_wchar_t
	.eabi_attribute	26, 2	@ Tag_ABI_enum_size
	.eabi_attribute	14, 0	@ Tag_ABI_PCS_R9_use
	.file	"boardSupport.c"
	.file	1 "C:\\Users\\admin\\OneDrive\\Embedded\\scratch\\STM32F439_Template\\STM32F439_Template" "./inc\\gpioControl.h"
	.file	2 "C:\\Keil_v5\\ARM\\ARMCLANG\\bin\\..\\include" "stdint.h"
	.file	3 "C:\\Users\\admin\\OneDrive\\Embedded\\scratch\\STM32F439_Template\\STM32F439_Template" "./inc\\stm32f439xx.h"
	.hidden	boardSupport_init               @ -- Begin function boardSupport_init
	.globl	boardSupport_init
	.p2align	2
	.type	boardSupport_init,%function
	.code	16                              @ @boardSupport_init
	.thumb_func
boardSupport_init:
.Lfunc_begin0:
	.file	4 "C:\\Users\\admin\\OneDrive\\Embedded\\scratch\\STM32F439_Template\\STM32F439_Template" "src/boardSupport.c"
	.loc	4 25 0                          @ src/boardSupport.c:25:0
	.fnstart
	.cfi_sections .debug_frame
	.cfi_startproc
@ %bb.0:
	.save	{r7, lr}
	push	{r7, lr}
	.cfi_def_cfa_offset 8
	.cfi_offset lr, -4
	.cfi_offset r7, -8
.Ltmp0:
	.loc	4 29 2 prologue_end             @ src/boardSupport.c:29:2
	bl	boardSupport_initGPIO
	.loc	4 31 1 epilogue_begin           @ src/boardSupport.c:31:1
	pop	{r7, pc}
.Ltmp1:
.Lfunc_end0:
	.size	boardSupport_init, .Lfunc_end0-boardSupport_init
	.cfi_endproc
	.cantunwind
	.fnend
                                        @ -- End function
	.p2align	2                               @ -- Begin function boardSupport_initGPIO
	.type	boardSupport_initGPIO,%function
	.code	16                              @ @boardSupport_initGPIO
	.thumb_func
boardSupport_initGPIO:
.Lfunc_begin1:
	.loc	4 41 0                          @ src/boardSupport.c:41:0
	.fnstart
	.cfi_startproc
@ %bb.0:
	.save	{r7, lr}
	push	{r7, lr}
	.cfi_def_cfa_offset 8
	.cfi_offset lr, -4
	.cfi_offset r7, -8
	.pad	#40
	sub	sp, #40
	.cfi_def_cfa_offset 48
	movw	r0, #7168
	movt	r0, #16386
.Ltmp2:
	.loc	4 49 18 prologue_end            @ src/boardSupport.c:49:18
	str	r0, [sp, #8]                    @ 4-byte Spill
	str	r0, [sp, #16]
	movs	r0, #4
	.loc	4 50 17                         @ src/boardSupport.c:50:17
	str	r0, [sp]                        @ 4-byte Spill
	str	r0, [sp, #20]
	movs	r0, #1
	.loc	4 51 18                         @ src/boardSupport.c:51:18
	str	r0, [sp, #24]
	movs	r0, #0
	.loc	4 52 24                         @ src/boardSupport.c:52:24
	str	r0, [sp, #28]
	.loc	4 53 24                         @ src/boardSupport.c:53:24
	str	r0, [sp, #32]
	.loc	4 54 19                         @ src/boardSupport.c:54:19
	str	r0, [sp, #36]
	add	r0, sp, #16
	.loc	4 57 2                          @ src/boardSupport.c:57:2
	str	r0, [sp, #4]                    @ 4-byte Spill
	bl	gpio_configureGPIO
	ldr	r1, [sp]                        @ 4-byte Reload
	ldr	r0, [sp, #8]                    @ 4-byte Reload
	.loc	4 60 2                          @ src/boardSupport.c:60:2
	bl	gpio_setGPIO
	ldr	r0, [sp, #4]                    @ 4-byte Reload
	movs	r1, #7
	.loc	4 63 17                         @ src/boardSupport.c:63:17
	str	r1, [sp, #12]                   @ 4-byte Spill
	str	r1, [sp, #20]
	.loc	4 64 2                          @ src/boardSupport.c:64:2
	bl	gpio_configureGPIO
	ldr	r0, [sp, #8]                    @ 4-byte Reload
	ldr	r1, [sp, #12]                   @ 4-byte Reload
	.loc	4 65 2                          @ src/boardSupport.c:65:2
	bl	gpio_setGPIO
	.loc	4 72 2 epilogue_begin           @ src/boardSupport.c:72:2
	add	sp, #40
	pop	{r7, pc}
.Ltmp3:
.Lfunc_end1:
	.size	boardSupport_initGPIO, .Lfunc_end1-boardSupport_initGPIO
	.cfi_endproc
	.cantunwind
	.fnend
                                        @ -- End function
	.hidden	delay_software_ms               @ -- Begin function delay_software_ms
	.globl	delay_software_ms
	.p2align	2
	.type	delay_software_ms,%function
	.code	16                              @ @delay_software_ms
	.thumb_func
delay_software_ms:
.Lfunc_begin2:
	.loc	4 83 0                          @ src/boardSupport.c:83:0
	.fnstart
	.cfi_startproc
@ %bb.0:
	.pad	#8
	sub	sp, #8
	.cfi_def_cfa_offset 8
	str	r0, [sp, #4]
	movs	r0, #0
.Ltmp4:
	.loc	4 86 11 prologue_end            @ src/boardSupport.c:86:11
	str	r0, [sp]
.Ltmp5:
	.loc	4 87 8                          @ src/boardSupport.c:87:8
	str	r0, [sp]
	.loc	4 87 6 is_stmt 0                @ src/boardSupport.c:87:6
	b	.LBB2_1
.LBB2_1:                                @ =>This Inner Loop Header: Depth=1
.Ltmp6:
	.loc	4 87 13                         @ src/boardSupport.c:87:13
	ldr	r0, [sp]
	.loc	4 87 18                         @ src/boardSupport.c:87:18
	ldr	r1, [sp, #4]
	movw	r2, #21000
	.loc	4 87 35                         @ src/boardSupport.c:87:35
	muls	r1, r2, r1
.Ltmp7:
	.loc	4 87 2                          @ src/boardSupport.c:87:2
	cmp	r0, r1
	bhs	.LBB2_4
	b	.LBB2_2
.LBB2_2:                                @   in Loop: Header=BB2_1 Depth=1
	b	.LBB2_3
.LBB2_3:                                @   in Loop: Header=BB2_1 Depth=1
.Ltmp8:
	.loc	4 87 46                         @ src/boardSupport.c:87:46
	ldr	r0, [sp]
	adds	r0, #1
	str	r0, [sp]
	.loc	4 87 2                          @ src/boardSupport.c:87:2
	b	.LBB2_1
.Ltmp9:
.LBB2_4:
	.loc	4 88 1 epilogue_begin is_stmt 1 @ src/boardSupport.c:88:1
	add	sp, #8
	bx	lr
.Ltmp10:
.Lfunc_end2:
	.size	delay_software_ms, .Lfunc_end2-delay_software_ms
	.cfi_endproc
	.cantunwind
	.fnend
                                        @ -- End function
	.hidden	delay_software_us               @ -- Begin function delay_software_us
	.globl	delay_software_us
	.p2align	2
	.type	delay_software_us,%function
	.code	16                              @ @delay_software_us
	.thumb_func
delay_software_us:
.Lfunc_begin3:
	.loc	4 98 0                          @ src/boardSupport.c:98:0
	.fnstart
	.cfi_startproc
@ %bb.0:
	.pad	#8
	sub	sp, #8
	.cfi_def_cfa_offset 8
	str	r0, [sp, #4]
	movs	r0, #0
.Ltmp11:
	.loc	4 100 12 prologue_end           @ src/boardSupport.c:100:12
	str	r0, [sp]
.Ltmp12:
	.loc	4 101 11                        @ src/boardSupport.c:101:11
	str	r0, [sp]
	.loc	4 101 9 is_stmt 0               @ src/boardSupport.c:101:9
	b	.LBB3_1
.LBB3_1:                                @ =>This Inner Loop Header: Depth=1
.Ltmp13:
	.loc	4 101 16                        @ src/boardSupport.c:101:16
	ldr	r0, [sp]
	.loc	4 101 21                        @ src/boardSupport.c:101:21
	ldr	r1, [sp, #4]
	movs	r2, #21
	.loc	4 101 26                        @ src/boardSupport.c:101:26
	muls	r1, r2, r1
.Ltmp14:
	.loc	4 101 5                         @ src/boardSupport.c:101:5
	cmp	r0, r1
	bhs	.LBB3_4
	b	.LBB3_2
.LBB3_2:                                @   in Loop: Header=BB3_1 Depth=1
	b	.LBB3_3
.LBB3_3:                                @   in Loop: Header=BB3_1 Depth=1
.Ltmp15:
	.loc	4 101 34                        @ src/boardSupport.c:101:34
	ldr	r0, [sp]
	adds	r0, #1
	str	r0, [sp]
	.loc	4 101 5                         @ src/boardSupport.c:101:5
	b	.LBB3_1
.Ltmp16:
.LBB3_4:
	.loc	4 103 1 epilogue_begin is_stmt 1 @ src/boardSupport.c:103:1
	add	sp, #8
	bx	lr
.Ltmp17:
.Lfunc_end3:
	.size	delay_software_us, .Lfunc_end3-delay_software_us
	.cfi_endproc
	.cantunwind
	.fnend
                                        @ -- End function
	.section	".note.GNU-stack","",%progbits
	.eabi_attribute	30, 6	@ Tag_ABI_optimization_goals
	.ARM_attribute	16, 1	@ Tag_AV_eba