	.text
	.syntax unified
	.eabi_attribute	67, "2.09"	@ Tag_conformance
	.cpu	cortex-m4
	.eabi_attribute	6, 13	@ Tag_CPU_arch
	.eabi_attribute	7, 77	@ Tag_CPU_arch_profile
	.eabi_attribute	8, 0	@ Tag_ARM_ISA_use
	.eabi_attribute	9, 2	@ Tag_THUMB_ISA_use
	.fpu	fpv4-sp-d16
	.eabi_attribute	27, 1	@ Tag_ABI_HardFP_use
	.eabi_attribute	36, 1	@ Tag_FP_HP_extension
	.eabi_attribute	34, 1	@ Tag_CPU_unaligned_access
	.eabi_attribute	17, 1	@ Tag_ABI_PCS_GOT_use
	.eabi_attribute	20, 2	@ Tag_ABI_FP_denormal
	.eabi_attribute	21, 0	@ Tag_ABI_FP_exceptions
	.eabi_attribute	23, 1	@ Tag_ABI_FP_number_model
	.eabi_attribute	24, 1	@ Tag_ABI_align_needed
	.eabi_attribute	25, 1	@ Tag_ABI_align_preserved
	.eabi_attribute	28, 1	@ Tag_ABI_VFP_args
	.eabi_attribute	38, 1	@ Tag_ABI_FP_16bit_format
	.eabi_attribute	18, 4	@ Tag_ABI_PCS_wchar_t
	.eabi_attribute	26, 2	@ Tag_ABI_enum_size
	.eabi_attribute	14, 0	@ Tag_ABI_PCS_R9_use
	.file	"main.c"
	.file	1 "C:\\Keil_v5\\ARM\\ARMCLANG\\bin\\..\\include" "stdint.h"
	.file	2 "C:\\Users\\admin\\OneDrive\\Embedded\\scratch\\STM32F439_Template\\STM32F439_Template" "src/main.c"
	.file	3 "C:\\Users\\admin\\OneDrive\\Embedded\\scratch\\STM32F439_Template\\STM32F439_Template" "./inc\\stm32f439xx.h"
	.file	4 "C:\\Users\\admin\\OneDrive\\Embedded\\scratch\\STM32F439_Template\\STM32F439_Template" "./inc/CMSIS\\core_cm4.h"
	.hidden	SysTick_Handler                 @ -- Begin function SysTick_Handler
	.globl	SysTick_Handler
	.p2align	2
	.type	SysTick_Handler,%function
	.code	16                              @ @SysTick_Handler
	.thumb_func
SysTick_Handler:
.Lfunc_begin0:
	.fnstart
	.cfi_sections .debug_frame
	.cfi_startproc
@ %bb.0:
	.loc	2 25 8 prologue_end             @ src/main.c:25:8
	movw	r1, :lower16:msTick
	movt	r1, :upper16:msTick
	ldr	r0, [r1]
	adds	r0, #1
	str	r0, [r1]
	.loc	2 26 1                          @ src/main.c:26:1
	bx	lr
.Ltmp0:
.Lfunc_end0:
	.size	SysTick_Handler, .Lfunc_end0-SysTick_Handler
	.cfi_endproc
	.cantunwind
	.fnend
                                        @ -- End function
	.hidden	configRCC                       @ -- Begin function configRCC
	.globl	configRCC
	.p2align	2
	.type	configRCC,%function
	.code	16                              @ @configRCC
	.thumb_func
configRCC:
.Lfunc_begin1:
	.loc	2 35 0                          @ src/main.c:35:0
	.fnstart
	.cfi_startproc
@ %bb.0:
	movw	r1, #14384
	movt	r1, #16386
.Ltmp1:
	.loc	2 36 15 prologue_end            @ src/main.c:36:15
	ldr	r0, [r1]
	orr	r0, r0, #1
	str	r0, [r1]
	.loc	2 37 15                         @ src/main.c:37:15
	ldr	r0, [r1]
	orr	r0, r0, #2
	str	r0, [r1]
	.loc	2 38 15                         @ src/main.c:38:15
	ldr	r0, [r1]
	orr	r0, r0, #32
	str	r0, [r1]
	.loc	2 39 1                          @ src/main.c:39:1
	bx	lr
.Ltmp2:
.Lfunc_end1:
	.size	configRCC, .Lfunc_end1-configRCC
	.cfi_endproc
	.cantunwind
	.fnend
                                        @ -- End function
	.hidden	configGPIO                      @ -- Begin function configGPIO
	.globl	configGPIO
	.p2align	2
	.type	configGPIO,%function
	.code	16                              @ @configGPIO
	.thumb_func
configGPIO:
.Lfunc_begin2:
	.loc	2 48 0                          @ src/main.c:48:0
	.fnstart
	.cfi_startproc
@ %bb.0:
	movs	r1, #0
	movt	r1, #16386
.Ltmp3:
	.loc	2 50 15 prologue_end            @ src/main.c:50:15
	ldr	r0, [r1]
	bic	r0, r0, #196608
	str	r0, [r1]
	.loc	2 51 15                         @ src/main.c:51:15
	ldr	r0, [r1]
	bic	r0, r0, #3145728
	str	r0, [r1]
	movw	r2, #1024
	movt	r2, #16386
	.loc	2 52 15                         @ src/main.c:52:15
	ldr	r0, [r2]
	bic	r0, r0, #3
	str	r0, [r2]
	movs	r3, #12
	movt	r3, #16386
	.loc	2 55 15                         @ src/main.c:55:15
	ldr	r0, [r3]
	orr	r0, r0, #65536
	str	r0, [r3]
	.loc	2 56 15                         @ src/main.c:56:15
	ldr	r0, [r3]
	orr	r0, r0, #1048576
	str	r0, [r3]
	movw	r3, #1036
	movt	r3, #16386
	.loc	2 57 15                         @ src/main.c:57:15
	ldr	r0, [r3]
	orr	r0, r0, #1
	str	r0, [r3]
	.loc	2 60 15                         @ src/main.c:60:15
	ldr	r0, [r1]
	bic	r0, r0, #786432
	str	r0, [r1]
	.loc	2 61 15                         @ src/main.c:61:15
	ldr	r0, [r1]
	orr	r0, r0, #262144
	str	r0, [r1]
	.loc	2 63 15                         @ src/main.c:63:15
	ldr	r0, [r2]
	bic	r0, r0, #12
	str	r0, [r2]
	.loc	2 64 15                         @ src/main.c:64:15
	ldr	r0, [r2]
	orr	r0, r0, #4
	str	r0, [r2]
	.loc	2 66 15                         @ src/main.c:66:15
	ldr	r0, [r2]
	bic	r0, r0, #196608
	str	r0, [r2]
	.loc	2 67 15                         @ src/main.c:67:15
	ldr	r0, [r2]
	orr	r0, r0, #65536
	str	r0, [r2]
	movw	r1, #5120
	movt	r1, #16386
	.loc	2 69 15                         @ src/main.c:69:15
	ldr	r0, [r1]
	bic	r0, r0, #12
	str	r0, [r1]
	.loc	2 70 15                         @ src/main.c:70:15
	ldr	r0, [r1]
	orr	r0, r0, #4
	str	r0, [r1]
	movs	r3, #20
	movt	r3, #16386
	.loc	2 73 13                         @ src/main.c:73:13
	ldr	r0, [r3]
	bic	r0, r0, #512
	str	r0, [r3]
	movw	r3, #1044
	movt	r3, #16386
	.loc	2 74 13                         @ src/main.c:74:13
	ldr	r0, [r3]
	bic	r0, r0, #2
	str	r0, [r3]
	.loc	2 75 13                         @ src/main.c:75:13
	ldr	r0, [r3]
	bic	r0, r0, #256
	str	r0, [r3]
	movw	r3, #5140
	movt	r3, #16386
	.loc	2 76 13                         @ src/main.c:76:13
	ldr	r0, [r3]
	bic	r0, r0, #2
	str	r0, [r3]
	.loc	2 79 15                         @ src/main.c:79:15
	ldr	r0, [r2]
	bic	r0, r0, #3145728
	str	r0, [r2]
	.loc	2 80 15                         @ src/main.c:80:15
	ldr	r0, [r2]
	orr	r0, r0, #2097152
	str	r0, [r2]
	.loc	2 82 15                         @ src/main.c:82:15
	ldr	r0, [r2]
	bic	r0, r0, #12582912
	str	r0, [r2]
	.loc	2 83 15                         @ src/main.c:83:15
	ldr	r0, [r2]
	orr	r0, r0, #8388608
	str	r0, [r2]
	.loc	2 86 15                         @ src/main.c:86:15
	ldr	r0, [r1]
	orr	r0, r0, #3145728
	str	r0, [r1]
	movw	r1, #5132
	movt	r1, #16386
	.loc	2 87 15                         @ src/main.c:87:15
	ldr	r0, [r1]
	bic	r0, r0, #3145728
	str	r0, [r1]
	movw	r1, #1060
	movt	r1, #16386
	.loc	2 90 16                         @ src/main.c:90:16
	ldr	r0, [r1]
	str	r0, [r1]
	.loc	2 91 16                         @ src/main.c:91:16
	ldr	r0, [r1]
	orr	r0, r0, #1792
	str	r0, [r1]
	.loc	2 93 16                         @ src/main.c:93:16
	ldr	r0, [r1]
	str	r0, [r1]
	.loc	2 94 16                         @ src/main.c:94:16
	ldr	r0, [r1]
	orr	r0, r0, #28672
	str	r0, [r1]
	.loc	2 95 1                          @ src/main.c:95:1
	bx	lr
.Ltmp4:
.Lfunc_end2:
	.size	configGPIO, .Lfunc_end2-configGPIO
	.cfi_endproc
	.cantunwind
	.fnend
                                        @ -- End function
	.hidden	configSysTick                   @ -- Begin function configSysTick
	.globl	configSysTick
	.p2align	2
	.type	configSysTick,%function
	.code	16                              @ @configSysTick
	.thumb_func
configSysTick:
.Lfunc_begin3:
	.loc	2 104 0                         @ src/main.c:104:0
	.fnstart
	.cfi_startproc
@ %bb.0:
	movw	r1, #57364
	movt	r1, #57344
	movw	r0, #36927
	movt	r0, #2
.Ltmp5:
	.loc	2 105 16 prologue_end           @ src/main.c:105:16
	str	r0, [r1]
	movw	r1, #57368
	movt	r1, #57344
	movs	r0, #0
	.loc	2 106 15                        @ src/main.c:106:15
	str	r0, [r1]
	movw	r1, #57360
	movt	r1, #57344
	movs	r0, #7
	.loc	2 107 16                        @ src/main.c:107:16
	str	r0, [r1]
	.loc	2 108 1                         @ src/main.c:108:1
	bx	lr
.Ltmp6:
.Lfunc_end3:
	.size	configSysTick, .Lfunc_end3-configSysTick
	.cfi_endproc
	.cantunwind
	.fnend
                                        @ -- End function
	.hidden	main                            @ -- Begin function main
	.globl	main
	.p2align	2
	.type	main,%function
	.code	16                              @ @main
	.thumb_func
main:
.Lfunc_begin4:
	.loc	2 117 0                         @ src/main.c:117:0
	.fnstart
	.cfi_startproc
@ %bb.0:
	.save	{r7, lr}
	push	{r7, lr}
	.cfi_def_cfa_offset 8
	.cfi_offset lr, -4
	.cfi_offset r7, -8
	.pad	#8
	sub	sp, #8
	.cfi_def_cfa_offset 16
	movs	r0, #0
	str	r0, [sp, #4]
.Ltmp7:
	.loc	2 118 2 prologue_end            @ src/main.c:118:2
	bl	configRCC
	.loc	2 119 2                         @ src/main.c:119:2
	bl	configGPIO
	.loc	2 120 2                         @ src/main.c:120:2
	bl	configSysTick
	.loc	2 123 2                         @ src/main.c:123:2
	bl	boardSupport_init
	.loc	2 125 3                         @ src/main.c:125:3
	b	.LBB4_1
.LBB4_1:                                @ =>This Inner Loop Header: Depth=1
	b	.LBB4_1
.Ltmp8:
.Lfunc_end4:
	.size	main, .Lfunc_end4-main
	.cfi_endproc
	.cantunwind
	.fnend
                                        @ -- End function
	.hidden	msTick                          @ @msTick
	.type	msTick,%object
	.section	.bss.msTick,"aw",%nobits
	.globl	msTick
	.p2align	2, 0x0
msTick:
	.long	0                               @ 0x0
	.size	msTick, 4

	.type	__ARM_use_no_argv,%object       @ @__ARM_use_no_argv
	.section	.ARM.use_no_argv,"awR",%progbits,unique,1
	.globl	__ARM_use_no_argv
	.p2align	2, 0x0
__ARM_use_no_argv:
	.long	1                               @ 0x1
	.size	__ARM_use_no_argv, 4

	.section	".note.GNU-stack","",%progbits
	.eabi_attribute	30, 6	@ Tag_ABI_optimization_goals
	.ARM_attribute	16, 1	@ Tag_AV_eba